target datalayout = "e-m:e-p270:32:32-p271:32:32-p272:64:64-i64:64-i128:128-f80:128-n8:16:32:64-S128"
target triple = "x86_64-pc-linux-gnu"

%struct.uv_loop_s = type { ptr, i32, [2 x ptr], %union.anon.1, ptr, i32, i64, i32, [2 x ptr], [2 x ptr], ptr, i32, i32, [2 x ptr], %union.pthread_mutex_t, %struct.uv_async_s, %union.pthread_rwlock_t, ptr, [2 x ptr], [2 x ptr], [2 x ptr], [2 x ptr], [2 x ptr], ptr, %struct.uv__io_s, i32, %struct.anon, i64, i64, [2 x i32], %struct.uv__io_s, %struct.uv_signal_s, i32, %struct.uv__io_s, ptr, i32 }
%union.anon.1 = type { ptr }
%union.pthread_mutex_t = type { %struct.__pthread_mutex_s }
%struct.__pthread_mutex_s = type { i32, i32, i32, i32, i32, i16, i16, %struct.__pthread_internal_list }
%struct.__pthread_internal_list = type { ptr, ptr }
%struct.uv_async_s = type { ptr, ptr, i32, ptr, [2 x ptr], %union.anon.2, ptr, i32, ptr, [2 x ptr], i32 }
%union.anon.2 = type { [4 x ptr] }
%union.pthread_rwlock_t = type { %struct.__pthread_rwlock_arch_t }
%struct.__pthread_rwlock_arch_t = type { i32, i32, i32, i32, i32, i32, i32, i32, i8, [7 x i8], i64, i32 }
%struct.anon = type { ptr, i32 }
%struct.uv_signal_s = type { ptr, ptr, i32, ptr, [2 x ptr], %union.anon.3, ptr, i32, ptr, i32, %struct.anon.4, i32, i32 }
%union.anon.3 = type { [4 x ptr] }
%struct.anon.4 = type { ptr, ptr, ptr, i32 }
%struct.uv__io_s = type { ptr, [2 x ptr], [2 x ptr], i32, i32, i32 }
%struct.uv_stream_s = type { ptr, ptr, i32, ptr, [2 x ptr], %union.anon, ptr, i32, i64, ptr, ptr, ptr, ptr, %struct.uv__io_s, [2 x ptr], [2 x ptr], ptr, i32, i32, ptr }
%union.anon = type { [4 x ptr] }
%struct.uv_buf_t = type { ptr, i64 }
%struct.uv_write_s = type { ptr, i32, [6 x ptr], ptr, ptr, ptr, [2 x ptr], i32, ptr, i32, i32, [4 x %struct.uv_buf_t] }
%struct.uv_connect_s = type { ptr, i32, [6 x ptr], ptr, ptr, [2 x ptr] }

; Function Attrs: nounwind uwtable
define dso_local void @uv__stream_flush_write_queue(ptr noundef %0, i32 noundef %1) #0 {
  %3 = alloca ptr, align 8
  %4 = alloca i32, align 4
  %5 = alloca ptr, align 8
  %6 = alloca ptr, align 8
  store ptr %0, ptr %3, align 8
  store i32 %1, ptr %4, align 4
  br label %7

7:                                                ; preds = %67, %2
  %8 = load ptr, ptr %3, align 8
  %9 = getelementptr inbounds %struct.uv_stream_s, ptr %8, i32 0, i32 14
  %10 = load ptr, ptr %3, align 8
  %11 = getelementptr inbounds %struct.uv_stream_s, ptr %10, i32 0, i32 14
  %12 = getelementptr inbounds [2 x ptr], ptr %11, i64 0, i64 0
  %13 = load ptr, ptr %12, align 8
  %14 = icmp eq ptr %9, %13
  %15 = xor i1 %14, true
  br i1 %15, label %16, label %68

16:                                               ; preds = %7
  %17 = load ptr, ptr %3, align 8
  %18 = getelementptr inbounds %struct.uv_stream_s, ptr %17, i32 0, i32 14
  %19 = getelementptr inbounds [2 x ptr], ptr %18, i64 0, i64 0
  %20 = load ptr, ptr %19, align 8
  store ptr %20, ptr %6, align 8
  br label %21

21:                                               ; preds = %16
  %22 = load ptr, ptr %6, align 8
  %23 = getelementptr inbounds [2 x ptr], ptr %22, i64 0, i64 0
  %24 = load ptr, ptr %23, align 8
  %25 = load ptr, ptr %6, align 8
  %26 = getelementptr inbounds [2 x ptr], ptr %25, i64 0, i64 1
  %27 = load ptr, ptr %26, align 8
  %28 = getelementptr inbounds [2 x ptr], ptr %27, i64 0, i64 0
  store ptr %24, ptr %28, align 8
  %29 = load ptr, ptr %6, align 8
  %30 = getelementptr inbounds [2 x ptr], ptr %29, i64 0, i64 1
  %31 = load ptr, ptr %30, align 8
  %32 = load ptr, ptr %6, align 8
  %33 = getelementptr inbounds [2 x ptr], ptr %32, i64 0, i64 0
  %34 = load ptr, ptr %33, align 8
  %35 = getelementptr inbounds [2 x ptr], ptr %34, i64 0, i64 1
  store ptr %31, ptr %35, align 8
  br label %36

36:                                               ; preds = %21
  %37 = load ptr, ptr %6, align 8
  %38 = getelementptr inbounds i8, ptr %37, i64 -88
  store ptr %38, ptr %5, align 8
  %39 = load i32, ptr %4, align 4
  %40 = load ptr, ptr %5, align 8
  %41 = getelementptr inbounds %struct.uv_write_s, ptr %40, i32 0, i32 10
  store i32 %39, ptr %41, align 4
  br label %42

42:                                               ; preds = %36
  %43 = load ptr, ptr %3, align 8
  %44 = getelementptr inbounds %struct.uv_stream_s, ptr %43, i32 0, i32 15
  %45 = load ptr, ptr %5, align 8
  %46 = getelementptr inbounds %struct.uv_write_s, ptr %45, i32 0, i32 6
  %47 = getelementptr inbounds [2 x ptr], ptr %46, i64 0, i64 0
  store ptr %44, ptr %47, align 8
  %48 = load ptr, ptr %3, align 8
  %49 = getelementptr inbounds %struct.uv_stream_s, ptr %48, i32 0, i32 15
  %50 = getelementptr inbounds [2 x ptr], ptr %49, i64 0, i64 1
  %51 = load ptr, ptr %50, align 8
  %52 = load ptr, ptr %5, align 8
  %53 = getelementptr inbounds %struct.uv_write_s, ptr %52, i32 0, i32 6
  %54 = getelementptr inbounds [2 x ptr], ptr %53, i64 0, i64 1
  store ptr %51, ptr %54, align 8
  %55 = load ptr, ptr %5, align 8
  %56 = getelementptr inbounds %struct.uv_write_s, ptr %55, i32 0, i32 6
  %57 = load ptr, ptr %5, align 8
  %58 = getelementptr inbounds %struct.uv_write_s, ptr %57, i32 0, i32 6
  %59 = getelementptr inbounds [2 x ptr], ptr %58, i64 0, i64 1
  %60 = load ptr, ptr %59, align 8
  %61 = getelementptr inbounds [2 x ptr], ptr %60, i64 0, i64 0
  store ptr %56, ptr %61, align 8
  %62 = load ptr, ptr %5, align 8
  %63 = getelementptr inbounds %struct.uv_write_s, ptr %62, i32 0, i32 6
  %64 = load ptr, ptr %3, align 8
  %65 = getelementptr inbounds %struct.uv_stream_s, ptr %64, i32 0, i32 15
  %66 = getelementptr inbounds [2 x ptr], ptr %65, i64 0, i64 1
  store ptr %63, ptr %66, align 8
  br label %67

67:                                               ; preds = %42
  br label %7, !llvm.loop !5

68:                                               ; preds = %7
  ret void
}

; Function Attrs: nounwind uwtable
define dso_local void @uv__stream_destroy(ptr noundef %0) #0 {
  %2 = alloca ptr, align 8
  store ptr %0, ptr %2, align 8
  %3 = load ptr, ptr %2, align 8
  %4 = getelementptr inbounds %struct.uv_stream_s, ptr %3, i32 0, i32 11
  %5 = load ptr, ptr %4, align 8
  %6 = icmp ne ptr %5, null
  br i1 %6, label %7, label %26

7:                                                ; preds = %1
  br label %8

8:                                                ; preds = %7
  %9 = load ptr, ptr %2, align 8
  %10 = getelementptr inbounds %struct.uv_stream_s, ptr %9, i32 0, i32 1
  %11 = load ptr, ptr %10, align 8
  %12 = getelementptr inbounds %struct.uv_loop_s, ptr %11, i32 0, i32 3
  %13 = load i32, ptr %12, align 8
  %14 = add i32 %13, -1
  store i32 %14, ptr %12, align 8
  br label %15

15:                                               ; preds = %8
  %16 = load ptr, ptr %2, align 8
  %17 = getelementptr inbounds %struct.uv_stream_s, ptr %16, i32 0, i32 11
  %18 = load ptr, ptr %17, align 8
  %19 = getelementptr inbounds %struct.uv_connect_s, ptr %18, i32 0, i32 3
  %20 = load ptr, ptr %19, align 8
  %21 = load ptr, ptr %2, align 8
  %22 = getelementptr inbounds %struct.uv_stream_s, ptr %21, i32 0, i32 11
  %23 = load ptr, ptr %22, align 8
  call void %20(ptr noundef %23, i32 noundef -125)
  %24 = load ptr, ptr %2, align 8
  %25 = getelementptr inbounds %struct.uv_stream_s, ptr %24, i32 0, i32 11
  store ptr null, ptr %25, align 8
  br label %26

26:                                               ; preds = %15, %1
  %27 = load ptr, ptr %2, align 8
  call void @uv__stream_flush_write_queue(ptr noundef %27, i32 noundef -125)
  %28 = load ptr, ptr %2, align 8
  call void @uv__write_callbacks(ptr noundef %28)
  %29 = load ptr, ptr %2, align 8
  call void @uv__drain(ptr noundef %29)
  ret void
}